target datalayout = "e-m:e-p270:32:32-p271:32:32-p272:64:64-i64:64-i128:128-f80:128-n8:16:32:64-S128"
target triple = "x86_64-pc-linux-gnu"

%struct.tMPI_Thread_key_t = type { %struct.tMPI_Atomic, ptr }
%struct.tMPI_Atomic = type { i32, [60 x i8] }
%struct.tmpi_group_ = type { i32, ptr }
%struct.tmpi_comm_ = type { %struct.tmpi_group_, %struct.tMPI_Barrier_t, ptr, ptr, i32, ptr, ptr, ptr, ptr, %struct.tMPI_Thread_mutex_t, %struct.tMPI_Thread_cond_t, %struct.tMPI_Thread_cond_t, ptr, ptr, ptr, ptr, ptr, ptr, %struct.tMPI_Atomic }
%struct.tMPI_Barrier_t = type { %struct.tMPI_Atomic, i32, %struct.tMPI_Atomic }
%struct.tMPI_Thread_mutex_t = type { %struct.tMPI_Atomic, ptr }
%struct.tMPI_Thread_cond_t = type { %struct.tMPI_Atomic, ptr }

@id_key = external global %struct.tMPI_Thread_key_t, align 8
@Nthreads = external global i32, align 4
@TMPI_COMM_WORLD = external global ptr, align 8

; Function Attrs: mustprogress uwtable
define noundef i32 @_Z13tMPI_In_groupP11tmpi_group_(ptr noundef %0) #0 {
  %2 = alloca i32, align 4
  %3 = alloca ptr, align 8
  %4 = alloca i32, align 4
  %5 = alloca ptr, align 8
  %6 = alloca %struct.tMPI_Thread_key_t, align 8
  store ptr %0, ptr %3, align 8
  call void @llvm.memcpy.p0.p0.i64(ptr align 8 %6, ptr align 8 @id_key, i64 72, i1 false)
  %7 = call noundef ptr @_Z23tMPI_Thread_getspecific17tMPI_Thread_key_t(ptr noundef byval(%struct.tMPI_Thread_key_t) align 8 %6)
  store ptr %7, ptr %5, align 8
  store i32 0, ptr %4, align 4
  br label %8

8:                                                ; preds = %26, %1
  %9 = load i32, ptr %4, align 4
  %10 = load ptr, ptr %3, align 8
  %11 = getelementptr inbounds %struct.tmpi_group_, ptr %10, i32 0, i32 0
  %12 = load i32, ptr %11, align 8
  %13 = icmp slt i32 %9, %12
  br i1 %13, label %14, label %29

14:                                               ; preds = %8
  %15 = load ptr, ptr %3, align 8
  %16 = getelementptr inbounds %struct.tmpi_group_, ptr %15, i32 0, i32 1
  %17 = load ptr, ptr %16, align 8
  %18 = load i32, ptr %4, align 4
  %19 = sext i32 %18 to i64
  %20 = getelementptr inbounds ptr, ptr %17, i64 %19
  %21 = load ptr, ptr %20, align 8
  %22 = load ptr, ptr %5, align 8
  %23 = icmp eq ptr %21, %22
  br i1 %23, label %24, label %25

24:                                               ; preds = %14
  store i32 1, ptr %2, align 4
  br label %30

25:                                               ; preds = %14
  br label %26

26:                                               ; preds = %25
  %27 = load i32, ptr %4, align 4
  %28 = add nsw i32 %27, 1
  store i32 %28, ptr %4, align 4
  br label %8, !llvm.loop !4

29:                                               ; preds = %8
  store i32 0, ptr %2, align 4
  br label %30

30:                                               ; preds = %29, %24
  %31 = load i32, ptr %2, align 4
  ret i32 %31
}

declare noundef ptr @_Z23tMPI_Thread_getspecific17tMPI_Thread_key_t(ptr noundef byval(%struct.tMPI_Thread_key_t) align 8) #1

; Function Attrs: nocallback nofree nounwind willreturn memory(argmem: readwrite)
declare void @llvm.memcpy.p0.p0.i64(ptr noalias nocapture writeonly, ptr noalias nocapture readonly, i64, i1 immarg) #2

; Function Attrs: mustprogress nounwind uwtable
define noundef i32 @_Z15tMPI_Group_sizeP11tmpi_group_Pi(ptr noundef %0, ptr noundef %1) #3 {
  %3 = alloca ptr, align 8
  %4 = alloca ptr, align 8
  store ptr %0, ptr %3, align 8
  store ptr %1, ptr %4, align 8
  %5 = load ptr, ptr %3, align 8
  %6 = icmp ne ptr %5, null
  br i1 %6, label %7, label %12

7:                                                ; preds = %2
  %8 = load ptr, ptr %3, align 8
  %9 = getelementptr inbounds %struct.tmpi_group_, ptr %8, i32 0, i32 0
  %10 = load i32, ptr %9, align 8
  %11 = load ptr, ptr %4, align 8
  store i32 %10, ptr %11, align 4
  br label %14

12:                                               ; preds = %2
  %13 = load ptr, ptr %4, align 8
  store i32 0, ptr %13, align 4
  br label %14

14:                                               ; preds = %12, %7
  ret i32 0
}

; Function Attrs: mustprogress uwtable
define noundef i32 @_Z15tMPI_Group_rankP11tmpi_group_Pi(ptr noundef %0, ptr noundef %1) #0 {
  %3 = alloca i32, align 4
  %4 = alloca ptr, align 8
  %5 = alloca ptr, align 8
  %6 = alloca i32, align 4
  %7 = alloca ptr, align 8
  %8 = alloca %struct.tMPI_Thread_key_t, align 8
  store ptr %0, ptr %4, align 8
  store ptr %1, ptr %5, align 8
  %9 = load ptr, ptr %4, align 8
  %10 = icmp ne ptr %9, null
  br i1 %10, label %12, label %11

11:                                               ; preds = %2
  store i32 -1, ptr %3, align 4
  br label %38

12:                                               ; preds = %2
  call void @llvm.memcpy.p0.p0.i64(ptr align 8 %8, ptr align 8 @id_key, i64 72, i1 false)
  %13 = call noundef ptr @_Z23tMPI_Thread_getspecific17tMPI_Thread_key_t(ptr noundef byval(%struct.tMPI_Thread_key_t) align 8 %8)
  store ptr %13, ptr %7, align 8
  store i32 0, ptr %6, align 4
  br label %14

14:                                               ; preds = %34, %12
  %15 = load i32, ptr %6, align 4
  %16 = load ptr, ptr %4, align 8
  %17 = getelementptr inbounds %struct.tmpi_group_, ptr %16, i32 0, i32 0
  %18 = load i32, ptr %17, align 8
  %19 = icmp slt i32 %15, %18
  br i1 %19, label %20, label %37

20:                                               ; preds = %14
  %21 = load ptr, ptr %4, align 8
  %22 = getelementptr inbounds %struct.tmpi_group_, ptr %21, i32 0, i32 1
  %23 = load ptr, ptr %22, align 8
  %24 = load i32, ptr %6, align 4
  %25 = sext i32 %24 to i64
  %26 = getelementptr inbounds ptr, ptr %23, i64 %25
  %27 = load ptr, ptr %26, align 8
  %28 = load ptr, ptr %7, align 8
  %29 = icmp eq ptr %27, %28
  br i1 %29, label %30, label %33

30:                                               ; preds = %20
  %31 = load i32, ptr %6, align 4
  %32 = load ptr, ptr %5, align 8
  store i32 %31, ptr %32, align 4
  store i32 0, ptr %3, align 4
  br label %38

33:                                               ; preds = %20
  br label %34

34:                                               ; preds = %33
  %35 = load i32, ptr %6, align 4
  %36 = add nsw i32 %35, 1
  store i32 %36, ptr %6, align 4
  br label %14, !llvm.loop !6

37:                                               ; preds = %14
  store i32 -1, ptr %3, align 4
  br label %38

38:                                               ; preds = %37, %30, %11
  %39 = load i32, ptr %3, align 4
  ret i32 %39
}

; Function Attrs: mustprogress uwtable
define noundef ptr @_Z16tMPI_Group_allocv() #0 {
  %1 = alloca ptr, align 8
  %2 = call noundef ptr @_Z11tMPI_Mallocm(i64 noundef 16)
  store ptr %2, ptr %1, align 8
  %3 = load i32, ptr @Nthreads, align 4
  %4 = sext i32 %3 to i64
  %5 = mul i64 8, %4
  %6 = call noundef ptr @_Z11tMPI_Mallocm(i64 noundef %5)
  %7 = load ptr, ptr %1, align 8
  %8 = getelementptr inbounds %struct.tmpi_group_, ptr %7, i32 0, i32 1
  store ptr %6, ptr %8, align 8
  %9 = load ptr, ptr %1, align 8
  %10 = getelementptr inbounds %struct.tmpi_group_, ptr %9, i32 0, i32 0
  store i32 0, ptr %10, align 8
  %11 = load ptr, ptr %1, align 8
  ret ptr %11
}

declare noundef ptr @_Z11tMPI_Mallocm(i64 noundef) #1

; Function Attrs: mustprogress nounwind uwtable
define noundef i32 @_Z15tMPI_Group_freePP11tmpi_group_(ptr noundef %0) #3 {
  %2 = alloca ptr, align 8
  store ptr %0, ptr %2, align 8
  %3 = load ptr, ptr %2, align 8
  %4 = icmp ne ptr %3, null
  br i1 %4, label %5, label %12

5:                                                ; preds = %1
  %6 = load ptr, ptr %2, align 8
  %7 = load ptr, ptr %6, align 8
  %8 = getelementptr inbounds %struct.tmpi_group_, ptr %7, i32 0, i32 1
  %9 = load ptr, ptr %8, align 8
  call void @free(ptr noundef %9) #5
  %10 = load ptr, ptr %2, align 8
  %11 = load ptr, ptr %10, align 8
  call void @free(ptr noundef %11) #5
  br label %12

12:                                               ; preds = %5, %1
  ret i32 0
}

; Function Attrs: nounwind
declare void @free(ptr noundef) #4

; Function Attrs: mustprogress uwtable
define noundef i32 @_Z15tMPI_Comm_groupP10tmpi_comm_PP11tmpi_group_(ptr noundef %0, ptr noundef %1) #0 {
  %3 = alloca ptr, align 8
  %4 = alloca ptr, align 8
  %5 = alloca i32, align 4
  %6 = alloca ptr, align 8
  store ptr %0, ptr %3, align 8
  store ptr %1, ptr %4, align 8
  %7 = call noundef ptr @_Z16tMPI_Group_allocv()
  store ptr %7, ptr %6, align 8
  %8 = load ptr, ptr %3, align 8
  %9 = getelementptr inbounds %struct.tmpi_comm_, ptr %8, i32 0, i32 0
  %10 = getelementptr inbounds %struct.tmpi_group_, ptr %9, i32 0, i32 0
  %11 = load i32, ptr %10, align 8
  %12 = load ptr, ptr %6, align 8
  %13 = getelementptr inbounds %struct.tmpi_group_, ptr %12, i32 0, i32 0
  store i32 %11, ptr %13, align 8
  store i32 0, ptr %5, align 4
  br label %14

14:                                               ; preds = %36, %2
  %15 = load i32, ptr %5, align 4
  %16 = load ptr, ptr %3, align 8
  %17 = getelementptr inbounds %struct.tmpi_comm_, ptr %16, i32 0, i32 0
  %18 = getelementptr inbounds %struct.tmpi_group_, ptr %17, i32 0, i32 0
  %19 = load i32, ptr %18, align 8
  %20 = icmp slt i32 %15, %19
  br i1 %20, label %21, label %39

21:                                               ; preds = %14
  %22 = load ptr, ptr %3, align 8
  %23 = getelementptr inbounds %struct.tmpi_comm_, ptr %22, i32 0, i32 0
  %24 = getelementptr inbounds %struct.tmpi_group_, ptr %23, i32 0, i32 1
  %25 = load ptr, ptr %24, align 8
  %26 = load i32, ptr %5, align 4
  %27 = sext i32 %26 to i64
  %28 = getelementptr inbounds ptr, ptr %25, i64 %27
  %29 = load ptr, ptr %28, align 8
  %30 = load ptr, ptr %6, align 8
  %31 = getelementptr inbounds %struct.tmpi_group_, ptr %30, i32 0, i32 1
  %32 = load ptr, ptr %31, align 8
  %33 = load i32, ptr %5, align 4
  %34 = sext i32 %33 to i64
  %35 = getelementptr inbounds ptr, ptr %32, i64 %34
  store ptr %29, ptr %35, align 8
  br label %36

36:                                               ; preds = %21
  %37 = load i32, ptr %5, align 4
  %38 = add nsw i32 %37, 1
  store i32 %38, ptr %5, align 4
  br label %14, !llvm.loop !7

39:                                               ; preds = %14
  %40 = load ptr, ptr %6, align 8
  %41 = load ptr, ptr %4, align 8
  store ptr %40, ptr %41, align 8
  ret i32 0
}

; Function Attrs: mustprogress uwtable
define noundef i32 @_Z15tMPI_Group_inclP11tmpi_group_iPiPS0_(ptr noundef %0, i32 noundef %1, ptr noundef %2, ptr noundef %3) #0 {
  %5 = alloca i32, align 4
  %6 = alloca ptr, align 8
  %7 = alloca i32, align 4
  %8 = alloca ptr, align 8
  %9 = alloca ptr, align 8
  %10 = alloca i32, align 4
  %11 = alloca ptr, align 8
  store ptr %0, ptr %6, align 8
  store i32 %1, ptr %7, align 4
  store ptr %2, ptr %8, align 8
  store ptr %3, ptr %9, align 8
  %12 = call noundef ptr @_Z16tMPI_Group_allocv()
  store ptr %12, ptr %11, align 8
  %13 = load i32, ptr %7, align 4
  %14 = load ptr, ptr %11, align 8
  %15 = getelementptr inbounds %struct.tmpi_group_, ptr %14, i32 0, i32 0
  store i32 %13, ptr %15, align 8
  store i32 0, ptr %10, align 4
  br label %16

16:                                               ; preds = %61, %4
  %17 = load i32, ptr %10, align 4
  %18 = load i32, ptr %7, align 4
  %19 = icmp slt i32 %17, %18
  br i1 %19, label %20, label %64

20:                                               ; preds = %16
  %21 = load ptr, ptr %8, align 8
  %22 = load i32, ptr %10, align 4
  %23 = sext i32 %22 to i64
  %24 = getelementptr inbounds i32, ptr %21, i64 %23
  %25 = load i32, ptr %24, align 4
  %26 = icmp slt i32 %25, 0
  br i1 %26, label %40, label %27

27:                                               ; preds = %20
  %28 = load ptr, ptr %6, align 8
  %29 = icmp ne ptr %28, null
  br i1 %29, label %30, label %40

30:                                               ; preds = %27
  %31 = load ptr, ptr %8, align 8
  %32 = load i32, ptr %10, align 4
  %33 = sext i32 %32 to i64
  %34 = getelementptr inbounds i32, ptr %31, i64 %33
  %35 = load i32, ptr %34, align 4
  %36 = load ptr, ptr %6, align 8
  %37 = getelementptr inbounds %struct.tmpi_group_, ptr %36, i32 0, i32 0
  %38 = load i32, ptr %37, align 8
  %39 = icmp sge i32 %35, %38
  br i1 %39, label %40, label %43

40:                                               ; preds = %30, %27, %20
  %41 = load ptr, ptr @TMPI_COMM_WORLD, align 8
  %42 = call noundef i32 @_Z10tMPI_ErrorP10tmpi_comm_i(ptr noundef %41, i32 noundef 8)
  store i32 %42, ptr %5, align 4
  br label %67

43:                                               ; preds = %30
  %44 = load ptr, ptr %6, align 8
  %45 = getelementptr inbounds %struct.tmpi_group_, ptr %44, i32 0, i32 1
  %46 = load ptr, ptr %45, align 8
  %47 = load ptr, ptr %8, align 8
  %48 = load i32, ptr %10, align 4
  %49 = sext i32 %48 to i64
  %50 = getelementptr inbounds i32, ptr %47, i64 %49
  %51 = load i32, ptr %50, align 4
  %52 = sext i32 %51 to i64
  %53 = getelementptr inbounds ptr, ptr %46, i64 %52
  %54 = load ptr, ptr %53, align 8
  %55 = load ptr, ptr %11, align 8
  %56 = getelementptr inbounds %struct.tmpi_group_, ptr %55, i32 0, i32 1
  %57 = load ptr, ptr %56, align 8
  %58 = load i32, ptr %10, align 4
  %59 = sext i32 %58 to i64
  %60 = getelementptr inbounds ptr, ptr %57, i64 %59
  store ptr %54, ptr %60, align 8
  br label %61

61:                                               ; preds = %43
  %62 = load i32, ptr %10, align 4
  %63 = add nsw i32 %62, 1
  store i32 %63, ptr %10, align 4
  br label %16, !llvm.loop !8

64:                                               ; preds = %16
  %65 = load ptr, ptr %11, align 8
  %66 = load ptr, ptr %9, align 8
  store ptr %65, ptr %66, align 8
  store i32 0, ptr %5, align 4
  br label %67

67:                                               ; preds = %64, %40
  %68 = load i32, ptr %5, align 4
  ret i32 %68
}

declare noundef i32 @_Z10tMPI_ErrorP10tmpi_comm_i(ptr noundef, i32 noundef) #1


!llvm.module.flags = !{!0, !1, !2, !3}

!0 = !{i32 1, !"wchar_size", i32 4}
!1 = !{i32 8, !"PIC Level", i32 2}
!2 = !{i32 7, !"uwtable", i32 2}
!3 = !{i32 7, !"frame-pointer", i32 2}
!4 = distinct !{!4, !5}
!5 = !{!"llvm.loop.mustprogress"}
!6 = distinct !{!6, !5}
!7 = distinct !{!7, !5}
!8 = distinct !{!8, !5}
