; ModuleID = 'bench/gromacs/original/group.cpp.ll'
source_filename = "bench/gromacs/original/group.cpp.ll"
target datalayout = "e-m:e-p270:32:32-p271:32:32-p272:64:64-i64:64-i128:128-f80:128-n8:16:32:64-S128"
target triple = "x86_64-pc-linux-gnu"

%struct.tMPI_Thread_key_t = type { %struct.tMPI_Atomic, ptr }
%struct.tMPI_Atomic = type { i32, [60 x i8] }

@id_key = external local_unnamed_addr global %struct.tMPI_Thread_key_t, align 8
@Nthreads = external local_unnamed_addr global i32, align 4
@TMPI_COMM_WORLD = external local_unnamed_addr global ptr, align 8

; Function Attrs: mustprogress uwtable
define noundef i32 @_Z13tMPI_In_groupP11tmpi_group_(ptr nocapture noundef readonly %0) local_unnamed_addr #0 {
  %2 = tail call noundef ptr @_Z23tMPI_Thread_getspecific17tMPI_Thread_key_t(ptr noundef nonnull byval(%struct.tMPI_Thread_key_t) align 8 @id_key)
  %3 = load i32, ptr %0, align 8
  %4 = icmp sgt i32 %3, 0
  br i1 %4, label %.lr.ph, label %._crit_edge

.lr.ph:                                           ; preds = %1
  %5 = getelementptr inbounds i8, ptr %0, i64 8
  %6 = load ptr, ptr %5, align 8
  %wide.trip.count = zext nneg i32 %3 to i64
  br label %8

7:                                                ; preds = %8
  %indvars.iv.next = add nuw nsw i64 %indvars.iv, 1
  %exitcond.not = icmp eq i64 %indvars.iv.next, %wide.trip.count
  br i1 %exitcond.not, label %._crit_edge, label %8, !llvm.loop !4

8:                                                ; preds = %.lr.ph, %7
  %indvars.iv = phi i64 [ 0, %.lr.ph ], [ %indvars.iv.next, %7 ]
  %9 = getelementptr inbounds ptr, ptr %6, i64 %indvars.iv
  %10 = load ptr, ptr %9, align 8
  %11 = icmp eq ptr %10, %2
  br i1 %11, label %._crit_edge, label %7

._crit_edge:                                      ; preds = %8, %7, %1
  %.0 = phi i32 [ 0, %1 ], [ 0, %7 ], [ 1, %8 ]
  ret i32 %.0
}

declare noundef ptr @_Z23tMPI_Thread_getspecific17tMPI_Thread_key_t(ptr noundef byval(%struct.tMPI_Thread_key_t) align 8) local_unnamed_addr #1

; Function Attrs: mustprogress nofree norecurse nosync nounwind willreturn memory(argmem: readwrite) uwtable
define noundef i32 @_Z15tMPI_Group_sizeP11tmpi_group_Pi(ptr noundef readonly %0, ptr nocapture noundef writeonly %1) local_unnamed_addr #2 {
  %.not = icmp eq ptr %0, null
  br i1 %.not, label %5, label %3

3:                                                ; preds = %2
  %4 = load i32, ptr %0, align 8
  br label %5

5:                                                ; preds = %2, %3
  %storemerge = phi i32 [ %4, %3 ], [ 0, %2 ]
  store i32 %storemerge, ptr %1, align 4
  ret i32 0
}

; Function Attrs: mustprogress uwtable
define noundef i32 @_Z15tMPI_Group_rankP11tmpi_group_Pi(ptr noundef readonly %0, ptr nocapture noundef writeonly %1) local_unnamed_addr #0 {
  %.not = icmp eq ptr %0, null
  br i1 %.not, label %.loopexit, label %3

3:                                                ; preds = %2
  %4 = tail call noundef ptr @_Z23tMPI_Thread_getspecific17tMPI_Thread_key_t(ptr noundef nonnull byval(%struct.tMPI_Thread_key_t) align 8 @id_key)
  %5 = load i32, ptr %0, align 8
  %6 = icmp sgt i32 %5, 0
  br i1 %6, label %.lr.ph, label %.loopexit

.lr.ph:                                           ; preds = %3
  %7 = getelementptr inbounds i8, ptr %0, i64 8
  %8 = load ptr, ptr %7, align 8
  %wide.trip.count = zext nneg i32 %5 to i64
  br label %9

9:                                                ; preds = %.lr.ph, %15
  %indvars.iv = phi i64 [ 0, %.lr.ph ], [ %indvars.iv.next, %15 ]
  %10 = getelementptr inbounds ptr, ptr %8, i64 %indvars.iv
  %11 = load ptr, ptr %10, align 8
  %12 = icmp eq ptr %11, %4
  br i1 %12, label %13, label %15

13:                                               ; preds = %9
  %14 = trunc nuw nsw i64 %indvars.iv to i32
  store i32 %14, ptr %1, align 4
  br label %.loopexit

15:                                               ; preds = %9
  %indvars.iv.next = add nuw nsw i64 %indvars.iv, 1
  %exitcond.not = icmp eq i64 %indvars.iv.next, %wide.trip.count
  br i1 %exitcond.not, label %.loopexit, label %9, !llvm.loop !6

.loopexit:                                        ; preds = %15, %3, %2, %13
  %.0 = phi i32 [ 0, %13 ], [ -1, %2 ], [ -1, %3 ], [ -1, %15 ]
  ret i32 %.0
}

; Function Attrs: mustprogress uwtable
define noundef ptr @_Z16tMPI_Group_allocv() local_unnamed_addr #0 {
  %1 = tail call noundef ptr @_Z11tMPI_Mallocm(i64 noundef 16)
  %2 = load i32, ptr @Nthreads, align 4
  %3 = sext i32 %2 to i64
  %4 = shl nsw i64 %3, 3
  %5 = tail call noundef ptr @_Z11tMPI_Mallocm(i64 noundef %4)
  %6 = getelementptr inbounds i8, ptr %1, i64 8
  store ptr %5, ptr %6, align 8
  store i32 0, ptr %1, align 8
  ret ptr %1
}

declare noundef ptr @_Z11tMPI_Mallocm(i64 noundef) local_unnamed_addr #1

; Function Attrs: mustprogress nounwind willreturn uwtable
define noundef i32 @_Z15tMPI_Group_freePP11tmpi_group_(ptr noundef readonly %0) local_unnamed_addr #3 {
  %.not = icmp eq ptr %0, null
  br i1 %.not, label %7, label %2

2:                                                ; preds = %1
  %3 = load ptr, ptr %0, align 8
  %4 = getelementptr inbounds i8, ptr %3, i64 8
  %5 = load ptr, ptr %4, align 8
  tail call void @free(ptr noundef %5) #5
  %6 = load ptr, ptr %0, align 8
  tail call void @free(ptr noundef %6) #5
  br label %7

7:                                                ; preds = %2, %1
  ret i32 0
}

; Function Attrs: mustprogress nounwind willreturn allockind("free") memory(argmem: readwrite, inaccessiblemem: readwrite)
declare void @free(ptr allocptr nocapture noundef) local_unnamed_addr #4

; Function Attrs: mustprogress uwtable
define noundef i32 @_Z15tMPI_Comm_groupP10tmpi_comm_PP11tmpi_group_(ptr nocapture noundef readonly %0, ptr nocapture noundef writeonly %1) local_unnamed_addr #0 {
  %3 = tail call noundef ptr @_Z11tMPI_Mallocm(i64 noundef 16)
  %4 = load i32, ptr @Nthreads, align 4
  %5 = sext i32 %4 to i64
  %6 = shl nsw i64 %5, 3
  %7 = tail call noundef ptr @_Z11tMPI_Mallocm(i64 noundef %6)
  %8 = getelementptr inbounds i8, ptr %3, i64 8
  store ptr %7, ptr %8, align 8
  store i32 0, ptr %3, align 8
  %9 = load i32, ptr %0, align 8
  store i32 %9, ptr %3, align 8
  %10 = icmp sgt i32 %9, 0
  br i1 %10, label %.lr.ph, label %._crit_edge

.lr.ph:                                           ; preds = %2
  %11 = getelementptr inbounds i8, ptr %0, i64 8
  br label %12

12:                                               ; preds = %.lr.ph, %12
  %indvars.iv = phi i64 [ 0, %.lr.ph ], [ %indvars.iv.next, %12 ]
  %13 = load ptr, ptr %11, align 8
  %14 = getelementptr inbounds ptr, ptr %13, i64 %indvars.iv
  %15 = load ptr, ptr %14, align 8
  %16 = load ptr, ptr %8, align 8
  %17 = getelementptr inbounds ptr, ptr %16, i64 %indvars.iv
  store ptr %15, ptr %17, align 8
  %indvars.iv.next = add nuw nsw i64 %indvars.iv, 1
  %18 = load i32, ptr %0, align 8
  %19 = sext i32 %18 to i64
  %20 = icmp slt i64 %indvars.iv.next, %19
  br i1 %20, label %12, label %._crit_edge, !llvm.loop !7

._crit_edge:                                      ; preds = %12, %2
  store ptr %3, ptr %1, align 8
  ret i32 0
}

; Function Attrs: mustprogress uwtable
define noundef i32 @_Z15tMPI_Group_inclP11tmpi_group_iPiPS0_(ptr noundef readonly %0, i32 noundef %1, ptr nocapture noundef readonly %2, ptr nocapture noundef writeonly %3) local_unnamed_addr #0 {
  %5 = tail call noundef ptr @_Z11tMPI_Mallocm(i64 noundef 16)
  %6 = load i32, ptr @Nthreads, align 4
  %7 = sext i32 %6 to i64
  %8 = shl nsw i64 %7, 3
  %9 = tail call noundef ptr @_Z11tMPI_Mallocm(i64 noundef %8)
  %10 = getelementptr inbounds i8, ptr %5, i64 8
  store ptr %9, ptr %10, align 8
  store i32 %1, ptr %5, align 8
  %11 = icmp sgt i32 %1, 0
  br i1 %11, label %.lr.ph, label %._crit_edge

.lr.ph:                                           ; preds = %4
  %.not23 = icmp eq ptr %0, null
  %12 = getelementptr inbounds i8, ptr %0, i64 8
  br i1 %.not23, label %.split, label %.lr.ph.split.preheader

.lr.ph.split.preheader:                           ; preds = %.lr.ph
  %wide.trip.count = zext nneg i32 %1 to i64
  br label %.lr.ph.split

.lr.ph.split:                                     ; preds = %.lr.ph.split.preheader, %20
  %indvars.iv = phi i64 [ 0, %.lr.ph.split.preheader ], [ %indvars.iv.next, %20 ]
  %13 = getelementptr inbounds i32, ptr %2, i64 %indvars.iv
  %14 = load i32, ptr %13, align 4
  %15 = icmp sgt i32 %14, -1
  br i1 %15, label %16, label %.split

16:                                               ; preds = %.lr.ph.split
  %17 = load i32, ptr %0, align 8
  %.not = icmp slt i32 %14, %17
  br i1 %.not, label %20, label %.split

.split:                                           ; preds = %.lr.ph.split, %16, %.lr.ph
  %18 = load ptr, ptr @TMPI_COMM_WORLD, align 8
  %19 = tail call noundef i32 @_Z10tMPI_ErrorP10tmpi_comm_i(ptr noundef %18, i32 noundef 8)
  br label %27

20:                                               ; preds = %16
  %21 = load ptr, ptr %12, align 8
  %22 = zext nneg i32 %14 to i64
  %23 = getelementptr inbounds ptr, ptr %21, i64 %22
  %24 = load ptr, ptr %23, align 8
  %25 = load ptr, ptr %10, align 8
  %26 = getelementptr inbounds ptr, ptr %25, i64 %indvars.iv
  store ptr %24, ptr %26, align 8
  %indvars.iv.next = add nuw nsw i64 %indvars.iv, 1
  %exitcond.not = icmp eq i64 %indvars.iv.next, %wide.trip.count
  br i1 %exitcond.not, label %._crit_edge, label %.lr.ph.split, !llvm.loop !8

._crit_edge:                                      ; preds = %20, %4
  store ptr %5, ptr %3, align 8
  br label %27

27:                                               ; preds = %._crit_edge, %.split
  %.0 = phi i32 [ %19, %.split ], [ 0, %._crit_edge ]
  ret i32 %.0
}

declare noundef i32 @_Z10tMPI_ErrorP10tmpi_comm_i(ptr noundef, i32 noundef) local_unnamed_addr #1


!llvm.module.flags = !{!0, !1, !2, !3}

!0 = !{i32 1, !"wchar_size", i32 4}
!1 = !{i32 8, !"PIC Level", i32 2}
!2 = !{i32 7, !"uwtable", i32 2}
!3 = !{i32 7, !"frame-pointer", i32 2}
!4 = distinct !{!4, !5}
!5 = !{!"llvm.loop.mustprogress"}
!6 = distinct !{!6, !5}
!7 = distinct !{!7, !5}
!8 = distinct !{!8, !5}
